; Function Attrs: mustprogress uwtable
define void @_ZN3zmq21routing_socket_base_t12add_out_pipeENS_6blob_tEPNS_6pipe_tE(ptr noundef nonnull align 8 dereferenceable(1912) %0, ptr noundef nonnull %1, ptr noundef %2) local_unnamed_addr #0 align 2 {
  %4 = alloca %"struct.zmq::routing_socket_base_t::out_pipe_t", align 8
  call void @llvm.lifetime.start.p0(i64 16, ptr nonnull %4) #36
  store ptr %2, ptr %4, align 8, !tbaa !228
  %5 = getelementptr inbounds nuw i8, ptr %4, i64 8
  store i8 1, ptr %5, align 8, !tbaa !229
  %6 = getelementptr inbounds nuw i8, ptr %0, i64 1832
  %7 = call { ptr, i8 } @_ZNSt8_Rb_treeIN3zmq6blob_tESt4pairIKS1_NS0_21routing_socket_base_t10out_pipe_tEESt10_Select1stIS6_ESt4lessIS1_ESaIS6_EE17_M_emplace_uniqueIJS1_RKS5_EEES2_ISt17_Rb_tree_iteratorIS6_EbEDpOT_(ptr noundef nonnull align 8 dereferenceable(48) %6, ptr noundef nonnull align 8 dereferenceable(17) %1, ptr noundef nonnull align 8 dereferenceable(16) %4)
  %.fca.1.extract = extractvalue { ptr, i8 } %7, 1
  %8 = trunc i8 %.fca.1.extract to i1
  br i1 %8, label %14, label %9, !prof !116

9:                                                ; preds = %3
  %10 = load ptr, ptr @stderr, align 8, !tbaa !100
  %11 = call i32 (ptr, ptr, ...) @fprintf(ptr noundef %10, ptr noundef nonnull @.str.3, ptr noundef nonnull @.str.21, ptr noundef nonnull @.str.1, i32 noundef 2114) #42
  %12 = load ptr, ptr @stderr, align 8, !tbaa !100
  %13 = call i32 @fflush(ptr noundef %12)
  call void @_ZN3zmq9zmq_abortEPKc(ptr noundef nonnull @.str.21)
  br label %14

14:                                               ; preds = %9, %3
  call void @llvm.lifetime.end.p0(i64 16, ptr nonnull %4) #36
  ret void
}